; Function Attrs: mustprogress uwtable
define hidden noundef zeroext i1 @_ZN4cvc58internal4expr15hasSubtermKindsERKSt13unordered_setINS0_4kind6Kind_tENS3_16KindHashFunctionESt8equal_toIS4_ESaIS4_EENS0_12NodeTemplateILb0EEE(ptr noundef nonnull readonly align 8 captures(none) dereferenceable(56) %0, ptr noundef readonly captures(none) %1) local_unnamed_addr #3 personality ptr @__gxx_personality_v0 {
  %3 = alloca %"class.std::unordered_set", align 8
  %4 = alloca %"class.cvc5::internal::NodeTemplate", align 8
  %5 = getelementptr inbounds nuw i8, ptr %0, i64 24
  %6 = load i64, ptr %5, align 8, !tbaa !80
  %7 = icmp eq i64 %6, 0
  br i1 %7, label %30, label %8

8:                                                ; preds = %2
  call void @llvm.lifetime.start.p0(i64 56, ptr nonnull %3) #21
  %9 = getelementptr inbounds nuw i8, ptr %3, i64 48
  store ptr %9, ptr %3, align 8, !tbaa !9
  %10 = getelementptr inbounds nuw i8, ptr %3, i64 8
  store i64 1, ptr %10, align 8, !tbaa !17
  %11 = getelementptr inbounds nuw i8, ptr %3, i64 16
  %12 = getelementptr inbounds nuw i8, ptr %3, i64 32
  call void @llvm.memset.p0.i64(ptr noundef nonnull align 8 dereferenceable(16) %11, i8 0, i64 16, i1 false)
  store float 1.000000e+00, ptr %12, align 8, !tbaa !18
  %13 = getelementptr inbounds nuw i8, ptr %3, i64 40
  call void @llvm.memset.p0.i64(ptr noundef nonnull align 8 dereferenceable(16) %13, i8 0, i64 16, i1 false)
  %14 = load ptr, ptr %1, align 8, !tbaa !3
  store ptr %14, ptr %4, align 8, !tbaa !3
  %15 = invoke noundef i32 @_ZN4cvc58internal4expr15hasSubtermKindsERKSt13unordered_setINS0_4kind6Kind_tENS3_16KindHashFunctionESt8equal_toIS4_ESaIS4_EENS0_12NodeTemplateILb0EEERS2_ISD_St4hashISD_ES6_ISD_ESaISD_EE(ptr noundef nonnull align 8 dereferenceable(56) %0, ptr noundef nonnull %4, ptr noundef nonnull align 8 dereferenceable(56) %3)
          to label %16 unwind label %28

16:                                               ; preds = %8
  %17 = icmp ne i32 %15, -1
  %18 = load ptr, ptr %11, align 8, !tbaa !46
  %.not5.i.i.i.i = icmp eq ptr %18, null
  br i1 %.not5.i.i.i.i, label %_ZNSt10_HashtableIN4cvc58internal12NodeTemplateILb0EEES3_SaIS3_ENSt8__detail9_IdentityESt8equal_toIS3_ESt4hashIS3_ENS5_18_Mod_range_hashingENS5_20_Default_ranged_hashENS5_20_Prime_rehash_policyENS5_17_Hashtable_traitsILb1ELb1ELb1EEEE5clearEv.exit.i.i, label %.lr.ph.i.i.i.i

.lr.ph.i.i.i.i:                                   ; preds = %16, %.lr.ph.i.i.i.i
  %.06.i.i.i.i = phi ptr [ %19, %.lr.ph.i.i.i.i ], [ %18, %16 ]
  %19 = load ptr, ptr %.06.i.i.i.i, align 8, !tbaa !34
  call void @_ZdlPvm(ptr noundef nonnull %.06.i.i.i.i, i64 noundef 24) #24
  %.not.i.i.i.i = icmp eq ptr %19, null
  br i1 %.not.i.i.i.i, label %_ZNSt10_HashtableIN4cvc58internal12NodeTemplateILb0EEES3_SaIS3_ENSt8__detail9_IdentityESt8equal_toIS3_ESt4hashIS3_ENS5_18_Mod_range_hashingENS5_20_Default_ranged_hashENS5_20_Prime_rehash_policyENS5_17_Hashtable_traitsILb1ELb1ELb1EEEE5clearEv.exit.i.i, label %.lr.ph.i.i.i.i, !llvm.loop !47

_ZNSt10_HashtableIN4cvc58internal12NodeTemplateILb0EEES3_SaIS3_ENSt8__detail9_IdentityESt8equal_toIS3_ESt4hashIS3_ENS5_18_Mod_range_hashingENS5_20_Default_ranged_hashENS5_20_Prime_rehash_policyENS5_17_Hashtable_traitsILb1ELb1ELb1EEEE5clearEv.exit.i.i: ; preds = %.lr.ph.i.i.i.i, %16
  %20 = load ptr, ptr %3, align 8, !tbaa !9
  %21 = load i64, ptr %10, align 8, !tbaa !17
  %22 = shl i64 %21, 3
  call void @llvm.memset.p0.i64(ptr align 8 %20, i8 0, i64 %22, i1 false)
  call void @llvm.memset.p0.i64(ptr noundef nonnull align 8 dereferenceable(16) %11, i8 0, i64 16, i1 false)
  %23 = load ptr, ptr %3, align 8, !tbaa !9
  %24 = icmp eq ptr %23, %9
  br i1 %24, label %_ZNSt13unordered_setIN4cvc58internal12NodeTemplateILb0EEESt4hashIS3_ESt8equal_toIS3_ESaIS3_EED2Ev.exit, label %25

25:                                               ; preds = %_ZNSt10_HashtableIN4cvc58internal12NodeTemplateILb0EEES3_SaIS3_ENSt8__detail9_IdentityESt8equal_toIS3_ESt4hashIS3_ENS5_18_Mod_range_hashingENS5_20_Default_ranged_hashENS5_20_Prime_rehash_policyENS5_17_Hashtable_traitsILb1ELb1ELb1EEEE5clearEv.exit.i.i
  %26 = load i64, ptr %10, align 8, !tbaa !17
  %27 = shl i64 %26, 3
  call void @_ZdlPvm(ptr noundef %23, i64 noundef %27) #24
  br label %_ZNSt13unordered_setIN4cvc58internal12NodeTemplateILb0EEESt4hashIS3_ESt8equal_toIS3_ESaIS3_EED2Ev.exit

_ZNSt13unordered_setIN4cvc58internal12NodeTemplateILb0EEESt4hashIS3_ESt8equal_toIS3_ESaIS3_EED2Ev.exit: ; preds = %_ZNSt10_HashtableIN4cvc58internal12NodeTemplateILb0EEES3_SaIS3_ENSt8__detail9_IdentityESt8equal_toIS3_ESt4hashIS3_ENS5_18_Mod_range_hashingENS5_20_Default_ranged_hashENS5_20_Prime_rehash_policyENS5_17_Hashtable_traitsILb1ELb1ELb1EEEE5clearEv.exit.i.i, %25
  call void @llvm.lifetime.end.p0(i64 56, ptr nonnull %3) #21
  br label %30

28:                                               ; preds = %8
  %29 = landingpad { ptr, i32 }
          cleanup
  call void @_ZNSt13unordered_setIN4cvc58internal12NodeTemplateILb0EEESt4hashIS3_ESt8equal_toIS3_ESaIS3_EED2Ev(ptr noundef nonnull align 8 dereferenceable(56) %3) #21
  call void @llvm.lifetime.end.p0(i64 56, ptr nonnull %3) #21
  resume { ptr, i32 } %29

30:                                               ; preds = %2, %_ZNSt13unordered_setIN4cvc58internal12NodeTemplateILb0EEESt4hashIS3_ESt8equal_toIS3_ESaIS3_EED2Ev.exit
  %.0 = phi i1 [ %17, %_ZNSt13unordered_setIN4cvc58internal12NodeTemplateILb0EEESt4hashIS3_ESt8equal_toIS3_ESaIS3_EED2Ev.exit ], [ false, %2 ]
  ret i1 %.0
}